target datalayout = "e-m:e-p270:32:32-p271:32:32-p272:64:64-i64:64-i128:128-f80:128-n8:16:32:64-S128"
target triple = "x86_64-pc-linux-gnu"

%struct.png_struct_def = type { [1 x %struct.__jmp_buf_tag], ptr, ptr, i64, ptr, ptr, ptr, ptr, ptr, ptr, ptr, ptr, i8, i8, i32, i32, i32, i32, %struct.z_stream_s, i32, i32, i32, i32, i64, i32, i32, i32, ptr, ptr, i64, i32, i32, ptr, i16, i32, i16, i8, i8, i8, i8, i8, i8, i8, i8, i8, i8, i8, i8, i8, i8, i16, i8, i32, %struct.png_color_16_struct, %struct.png_color_16_struct, i32, i32, ptr, ptr, ptr, ptr, ptr, ptr, %struct.png_color_8_struct, %struct.png_color_8_struct, ptr, %struct.png_color_16_struct, ptr, ptr, ptr, ptr, ptr, ptr, ptr, ptr, ptr, i32, i32, i64, i64, i64, i64, i32, i32, ptr, ptr, [29 x i8], i32, ptr, ptr, i32, i32, ptr, i8, i8, i16, i16, ptr, i32, i8, ptr, ptr, ptr, ptr, ptr, ptr, ptr, i8, i32, i32, i32, i64, %struct.png_unknown_chunk_t, i64, ptr, i64, i32, i32, ptr, [4 x ptr], %struct.png_colorspace }
%struct.__jmp_buf_tag = type { [8 x i64], i32, %struct.__sigset_t }
%struct.__sigset_t = type { [16 x i64] }
%struct.z_stream_s = type { ptr, i32, i64, ptr, i32, i64, ptr, ptr, ptr, ptr, ptr, i32, i64, i64 }
%struct.png_color_8_struct = type { i8, i8, i8, i8, i8 }
%struct.png_color_16_struct = type { i8, i16, i16, i16, i16 }
%struct.png_unknown_chunk_t = type { [5 x i8], ptr, i64, i8 }
%struct.png_colorspace = type { i32, %struct.png_xy, %struct.png_XYZ, i16, i16 }
%struct.png_xy = type { i32, i32, i32, i32, i32, i32, i32, i32 }
%struct.png_XYZ = type { i32, i32, i32, i32, i32, i32, i32, i32, i32 }

@.str = private unnamed_addr constant [28 x i8] c"internal error: array alloc\00", align 1

; Function Attrs: nounwind uwtable
define hidden noalias ptr @png_malloc_base(ptr noalias noundef %0, i64 noundef %1) #0 {
  %3 = alloca ptr, align 8
  %4 = alloca ptr, align 8
  %5 = alloca i64, align 8
  store ptr %0, ptr %4, align 8
  store i64 %1, ptr %5, align 8
  %6 = load i64, ptr %5, align 8
  %7 = icmp ugt i64 %6, 0
  br i1 %7, label %8, label %29

8:                                                ; preds = %2
  %9 = load i64, ptr %5, align 8
  %10 = icmp ule i64 %9, -1
  br i1 %10, label %11, label %29

11:                                               ; preds = %8
  %12 = load ptr, ptr %4, align 8
  %13 = icmp ne ptr %12, null
  br i1 %13, label %14, label %26

14:                                               ; preds = %11
  %15 = load ptr, ptr %4, align 8
  %16 = getelementptr inbounds %struct.png_struct_def, ptr %15, i32 0, i32 101
  %17 = load ptr, ptr %16, align 8
  %18 = icmp ne ptr %17, null
  br i1 %18, label %19, label %26

19:                                               ; preds = %14
  %20 = load ptr, ptr %4, align 8
  %21 = getelementptr inbounds %struct.png_struct_def, ptr %20, i32 0, i32 101
  %22 = load ptr, ptr %21, align 8
  %23 = load ptr, ptr %4, align 8
  %24 = load i64, ptr %5, align 8
  %25 = call ptr %22(ptr noundef %23, i64 noundef %24)
  store ptr %25, ptr %3, align 8
  br label %30

26:                                               ; preds = %14, %11
  %27 = load i64, ptr %5, align 8
  %28 = call noalias ptr @malloc(i64 noundef %27) #8
  store ptr %28, ptr %3, align 8
  br label %30

29:                                               ; preds = %8, %2
  store ptr null, ptr %3, align 8
  br label %30

30:                                               ; preds = %29, %26, %19
  %31 = load ptr, ptr %3, align 8
  ret ptr %31
}

; Function Attrs: nounwind uwtable
define internal ptr @png_malloc_array_checked(ptr noalias noundef %0, i32 noundef %1, i64 noundef %2) #0 {
  %4 = alloca ptr, align 8
  %5 = alloca ptr, align 8
  %6 = alloca i32, align 4
  %7 = alloca i64, align 8
  %8 = alloca i64, align 8
  store ptr %0, ptr %5, align 8
  store i32 %1, ptr %6, align 4
  store i64 %2, ptr %7, align 8
  %9 = load i32, ptr %6, align 4
  %10 = sext i32 %9 to i64
  store i64 %10, ptr %8, align 8
  %11 = load i64, ptr %8, align 8
  %12 = load i64, ptr %7, align 8
  %13 = udiv i64 -1, %12
  %14 = icmp ule i64 %11, %13
  br i1 %14, label %15, label %21

15:                                               ; preds = %3
  %16 = load ptr, ptr %5, align 8
  %17 = load i64, ptr %8, align 8
  %18 = load i64, ptr %7, align 8
  %19 = mul i64 %17, %18
  %20 = call noalias ptr @png_malloc_base(ptr noundef %16, i64 noundef %19)
  store ptr %20, ptr %4, align 8
  br label %22

21:                                               ; preds = %3
  store ptr null, ptr %4, align 8
  br label %22

22:                                               ; preds = %21, %15
  %23 = load ptr, ptr %4, align 8
  ret ptr %23
}

; Function Attrs: nounwind uwtable
define hidden noalias ptr @png_malloc_array(ptr noalias noundef %0, i32 noundef %1, i64 noundef %2) #0 {
  %4 = alloca ptr, align 8
  %5 = alloca i32, align 4
  %6 = alloca i64, align 8
  store ptr %0, ptr %4, align 8
  store i32 %1, ptr %5, align 4
  store i64 %2, ptr %6, align 8
  %7 = load i32, ptr %5, align 4
  %8 = icmp sle i32 %7, 0
  br i1 %8, label %12, label %9

9:                                                ; preds = %3
  %10 = load i64, ptr %6, align 8
  %11 = icmp eq i64 %10, 0
  br i1 %11, label %12, label %14

12:                                               ; preds = %9, %3
  %13 = load ptr, ptr %4, align 8
  call void @png_error(ptr noundef %13, ptr noundef @.str) #7
  unreachable

14:                                               ; preds = %9
  %15 = load ptr, ptr %4, align 8
  %16 = load i32, ptr %5, align 4
  %17 = load i64, ptr %6, align 8
  %18 = call ptr @png_malloc_array_checked(ptr noundef %15, i32 noundef %16, i64 noundef %17)
  ret ptr %18
}