; Function Attrs: nounwind uwtable
define hidden noalias ptr @png_malloc_array(ptr noalias noundef %0, i32 noundef %1, i64 noundef %2) local_unnamed_addr #0 {
  %4 = icmp slt i32 %1, 1
  %5 = icmp eq i64 %2, 0
  %or.cond = or i1 %4, %5
  br i1 %or.cond, label %6, label %7

6:                                                ; preds = %3
  tail call void @png_error(ptr noundef %0, ptr noundef nonnull @.str) #13
  unreachable

7:                                                ; preds = %3
  %8 = zext nneg i32 %1 to i64
  %mul.i = tail call { i64, i1 } @llvm.umul.with.overflow.i64(i64 %2, i64 %8)
  %mul.ov.i = extractvalue { i64, i1 } %mul.i, 1
  br i1 %mul.ov.i, label %png_malloc_array_checked.exit, label %9

9:                                                ; preds = %7
  %10 = mul i64 %8, %2
  %.not.i.i = icmp eq i64 %10, 0
  br i1 %.not.i.i, label %png_malloc_array_checked.exit, label %11

11:                                               ; preds = %9
  %.not12.i.i = icmp eq ptr %0, null
  br i1 %.not12.i.i, label %17, label %12

12:                                               ; preds = %11
  %13 = getelementptr inbounds i8, ptr %0, i64 896
  %14 = load ptr, ptr %13, align 8, !alias.scope !17
  %.not13.i.i = icmp eq ptr %14, null
  br i1 %.not13.i.i, label %17, label %15

15:                                               ; preds = %12
  %16 = tail call ptr %14(ptr noundef nonnull %0, i64 noundef %10) #11
  br label %png_malloc_array_checked.exit

17:                                               ; preds = %12, %11
  %18 = tail call noalias ptr @malloc(i64 noundef %10) #12
  br label %png_malloc_array_checked.exit

png_malloc_array_checked.exit:                    ; preds = %7, %9, %15, %17
  %.0.i = phi ptr [ null, %7 ], [ %16, %15 ], [ %18, %17 ], [ null, %9 ]
  ret ptr %.0.i
}